target datalayout = "e-m:e-p270:32:32-p271:32:32-p272:64:64-i64:64-i128:128-f80:128-n8:16:32:64-S128"
target triple = "x86_64-pc-linux-gnu"

%struct.nameData = type { [64 x i8] }
%struct.FormData_pg_type = type { i32, %struct.nameData, i32, i32, i16, i8, i8, i8, i8, i8, i8, i32, i32, i32, i32, i32, i32, i32, i32, i32, i32, i32, i8, i8, i8, i32, i32, i32, i32 }
%struct.HeapTupleData = type { i32, %struct.ItemPointerData, i32, ptr }
%struct.ItemPointerData = type { %struct.BlockIdData, i16 }
%struct.BlockIdData = type { i16, i16 }
%struct.HeapTupleHeaderData = type { %union.anon, %struct.ItemPointerData, i16, i16, i8, [0 x i8] }
%union.anon = type { %struct.HeapTupleFields }
%struct.HeapTupleFields = type { i32, i32, %union.anon.0 }
%union.anon.0 = type { i32 }

@.str.1 = private unnamed_addr constant [10 x i8] c"pg_type.c\00", align 1
@object_access_hook = external global ptr, align 8
@.str.7 = private unnamed_addr constant [25 x i8] c"type \22%s\22 already exists\00", align 1
@.str.9 = private unnamed_addr constant [32 x i8] c"cache lookup failed for type %u\00", align 1
@__func__.RenameTypeInternal = private unnamed_addr constant [19 x i8] c"RenameTypeInternal\00", align 1

; Function Attrs: inlinehint nounwind uwtable
define internal i64 @PointerGetDatum(ptr noundef %0) #3 {
  %2 = alloca ptr, align 8
  store ptr %0, ptr %2, align 8
  %3 = load ptr, ptr %2, align 8
  %4 = ptrtoint ptr %3 to i64
  ret i64 %4
}

; Function Attrs: nounwind uwtable
define dso_local zeroext i1 @moveArrayTypeName(i32 noundef %0, ptr noundef %1, i32 noundef %2) #0 {
  %4 = alloca i1, align 1
  %5 = alloca i32, align 4
  %6 = alloca ptr, align 8
  %7 = alloca i32, align 4
  %8 = alloca i32, align 4
  %9 = alloca ptr, align 8
  %10 = alloca i32, align 4
  store i32 %0, ptr %5, align 4
  store ptr %1, ptr %6, align 8
  store i32 %2, ptr %7, align 4
  call void @llvm.lifetime.start.p0(i64 4, ptr %8) #7
  call void @llvm.lifetime.start.p0(i64 8, ptr %9) #7
  %11 = load i32, ptr %5, align 4
  %12 = call zeroext i1 @get_typisdefined(i32 noundef %11)
  br i1 %12, label %14, label %13

13:                                               ; preds = %3
  store i1 true, ptr %4, align 1
  store i32 1, ptr %10, align 4
  br label %33

14:                                               ; preds = %3
  %15 = load i32, ptr %5, align 4
  %16 = call i32 @get_element_type(i32 noundef %15)
  store i32 %16, ptr %8, align 4
  %17 = load i32, ptr %8, align 4
  %18 = icmp ne i32 %17, 0
  br i1 %18, label %19, label %24

19:                                               ; preds = %14
  %20 = load i32, ptr %8, align 4
  %21 = call i32 @get_array_type(i32 noundef %20)
  %22 = load i32, ptr %5, align 4
  %23 = icmp ne i32 %21, %22
  br i1 %23, label %24, label %25

24:                                               ; preds = %19, %14
  store i1 false, ptr %4, align 1
  store i32 1, ptr %10, align 4
  br label %33

25:                                               ; preds = %19
  %26 = load ptr, ptr %6, align 8
  %27 = load i32, ptr %7, align 4
  %28 = call ptr @makeArrayTypeName(ptr noundef %26, i32 noundef %27)
  store ptr %28, ptr %9, align 8
  %29 = load i32, ptr %5, align 4
  %30 = load ptr, ptr %9, align 8
  %31 = load i32, ptr %7, align 4
  call void @RenameTypeInternal(i32 noundef %29, ptr noundef %30, i32 noundef %31)
  call void @CommandCounterIncrement()
  %32 = load ptr, ptr %9, align 8
  call void @pfree(ptr noundef %32)
  store i1 true, ptr %4, align 1
  store i32 1, ptr %10, align 4
  br label %33

33:                                               ; preds = %25, %24, %13
  call void @llvm.lifetime.end.p0(i64 8, ptr %9) #7
  call void @llvm.lifetime.end.p0(i64 4, ptr %8) #7
  %34 = load i1, ptr %4, align 1
  ret i1 %34
}

; Function Attrs: inlinehint nounwind uwtable
define internal i64 @CStringGetDatum(ptr noundef %0) #3 {
  %2 = alloca ptr, align 8
  store ptr %0, ptr %2, align 8
  %3 = load ptr, ptr %2, align 8
  %4 = call i64 @PointerGetDatum(ptr noundef %3)
  ret i64 %4
}

; Function Attrs: inlinehint nounwind uwtable
define internal ptr @GETSTRUCT(ptr noundef %0) #3 {
  %2 = alloca ptr, align 8
  store ptr %0, ptr %2, align 8
  %3 = load ptr, ptr %2, align 8
  %4 = getelementptr inbounds nuw %struct.HeapTupleData, ptr %3, i32 0, i32 3
  %5 = load ptr, ptr %4, align 8
  %6 = load ptr, ptr %2, align 8
  %7 = getelementptr inbounds nuw %struct.HeapTupleData, ptr %6, i32 0, i32 3
  %8 = load ptr, ptr %7, align 8
  %9 = getelementptr inbounds nuw %struct.HeapTupleHeaderData, ptr %8, i32 0, i32 4
  %10 = load i8, ptr %9, align 2
  %11 = zext i8 %10 to i32
  %12 = sext i32 %11 to i64
  %13 = getelementptr inbounds i8, ptr %5, i64 %12
  ret ptr %13
}

; Function Attrs: inlinehint nounwind uwtable
define internal i64 @ObjectIdGetDatum(i32 noundef %0) #3 {
  %2 = alloca i32, align 4
  store i32 %0, ptr %2, align 4
  %3 = load i32, ptr %2, align 4
  %4 = zext i32 %3 to i64
  ret i64 %4
}

; Function Attrs: nounwind uwtable
define dso_local void @RenameTypeInternal(i32 noundef %0, ptr noundef %1, i32 noundef %2) #0 {
  %4 = alloca i32, align 4
  %5 = alloca ptr, align 8
  %6 = alloca i32, align 4
  %7 = alloca ptr, align 8
  %8 = alloca ptr, align 8
  %9 = alloca ptr, align 8
  %10 = alloca i32, align 4
  %11 = alloca i32, align 4
  %12 = alloca ptr, align 8
  store i32 %0, ptr %4, align 4
  store ptr %1, ptr %5, align 8
  store i32 %2, ptr %6, align 4
  call void @llvm.lifetime.start.p0(i64 8, ptr %7) #7
  call void @llvm.lifetime.start.p0(i64 8, ptr %8) #7
  call void @llvm.lifetime.start.p0(i64 8, ptr %9) #7
  call void @llvm.lifetime.start.p0(i64 4, ptr %10) #7
  call void @llvm.lifetime.start.p0(i64 4, ptr %11) #7
  %13 = call ptr @table_open(i32 noundef 1247, i32 noundef 3)
  store ptr %13, ptr %7, align 8
  %14 = load i32, ptr %4, align 4
  %15 = call i64 @ObjectIdGetDatum(i32 noundef %14)
  %16 = call ptr @SearchSysCacheCopy(i32 noundef 82, i64 noundef %15, i64 noundef 0, i64 noundef 0, i64 noundef 0)
  store ptr %16, ptr %8, align 8
  %17 = load ptr, ptr %8, align 8
  %18 = icmp ne ptr %17, null
  br i1 %18, label %31, label %19

19:                                               ; preds = %3
  br label %20

20:                                               ; preds = %19
  br i1 true, label %21, label %23

21:                                               ; preds = %20
  %22 = call zeroext i1 @errstart_cold(i32 noundef 21, ptr noundef null) #8
  br i1 %22, label %25, label %28

23:                                               ; preds = %20
  %24 = call zeroext i1 @errstart(i32 noundef 21, ptr noundef null)
  br i1 %24, label %25, label %28

25:                                               ; preds = %23, %21
  %26 = load i32, ptr %4, align 4
  %27 = call i32 (ptr, ...) @errmsg_internal(ptr noundef @.str.9, i32 noundef %26)
  call void @errfinish(ptr noundef @.str.1, i32 noundef 777, ptr noundef @__func__.RenameTypeInternal)
  br label %28

28:                                               ; preds = %25, %23, %21
  unreachable

29:                                               ; No predecessors!
  br label %30

30:                                               ; preds = %29
  br label %31

31:                                               ; preds = %30, %3
  %32 = load ptr, ptr %8, align 8
  %33 = call ptr @GETSTRUCT(ptr noundef %32)
  store ptr %33, ptr %9, align 8
  %34 = load ptr, ptr %9, align 8
  %35 = getelementptr inbounds nuw %struct.FormData_pg_type, ptr %34, i32 0, i32 14
  %36 = load i32, ptr %35, align 4
  store i32 %36, ptr %10, align 4
  %37 = load ptr, ptr %5, align 8
  %38 = call i64 @CStringGetDatum(ptr noundef %37)
  %39 = load i32, ptr %6, align 4
  %40 = call i64 @ObjectIdGetDatum(i32 noundef %39)
  %41 = call i32 @GetSysCacheOid(i32 noundef 81, i16 noundef signext 1, i64 noundef %38, i64 noundef %40, i64 noundef 0, i64 noundef 0)
  store i32 %41, ptr %11, align 4
  %42 = load i32, ptr %11, align 4
  %43 = icmp ne i32 %42, 0
  br i1 %43, label %44, label %67

44:                                               ; preds = %31
  %45 = load i32, ptr %11, align 4
  %46 = call zeroext i1 @get_typisdefined(i32 noundef %45)
  br i1 %46, label %47, label %53

47:                                               ; preds = %44
  %48 = load i32, ptr %11, align 4
  %49 = load ptr, ptr %5, align 8
  %50 = load i32, ptr %6, align 4
  %51 = call zeroext i1 @moveArrayTypeName(i32 noundef %48, ptr noundef %49, i32 noundef %50)
  br i1 %51, label %52, label %53

52:                                               ; preds = %47
  br label %66

53:                                               ; preds = %47, %44
  br label %54

54:                                               ; preds = %53
  br i1 true, label %55, label %57

55:                                               ; preds = %54
  %56 = call zeroext i1 @errstart_cold(i32 noundef 21, ptr noundef null) #8
  br i1 %56, label %59, label %63

57:                                               ; preds = %54
  %58 = call zeroext i1 @errstart(i32 noundef 21, ptr noundef null)
  br i1 %58, label %59, label %63

59:                                               ; preds = %57, %55
  %60 = call i32 @errcode(i32 noundef 290948)
  %61 = load ptr, ptr %5, align 8
  %62 = call i32 (ptr, ...) @errmsg(ptr noundef @.str.7, ptr noundef %61)
  call void @errfinish(ptr noundef @.str.1, i32 noundef 805, ptr noundef @__func__.RenameTypeInternal)
  br label %63

63:                                               ; preds = %59, %57, %55
  unreachable

64:                                               ; No predecessors!
  br label %65

65:                                               ; preds = %64
  br label %66

66:                                               ; preds = %65, %52
  br label %67

67:                                               ; preds = %66, %31
  %68 = load ptr, ptr %9, align 8
  %69 = getelementptr inbounds nuw %struct.FormData_pg_type, ptr %68, i32 0, i32 1
  %70 = load ptr, ptr %5, align 8
  call void @namestrcpy(ptr noundef %69, ptr noundef %70)
  %71 = load ptr, ptr %7, align 8
  %72 = load ptr, ptr %8, align 8
  %73 = getelementptr inbounds nuw %struct.HeapTupleData, ptr %72, i32 0, i32 1
  %74 = load ptr, ptr %8, align 8
  call void @CatalogTupleUpdate(ptr noundef %71, ptr noundef %73, ptr noundef %74)
  br label %75

75:                                               ; preds = %67
  %76 = load ptr, ptr @object_access_hook, align 8
  %77 = icmp ne ptr %76, null
  br i1 %77, label %78, label %80

78:                                               ; preds = %75
  %79 = load i32, ptr %4, align 4
  call void @RunObjectPostAlterHook(i32 noundef 1247, i32 noundef %79, i32 noundef 0, i32 noundef 0, i1 noundef zeroext false)
  br label %80

80:                                               ; preds = %78, %75
  br label %81

81:                                               ; preds = %80
  br label %82

82:                                               ; preds = %81
  %83 = load ptr, ptr %8, align 8
  call void @heap_freetuple(ptr noundef %83)
  %84 = load ptr, ptr %7, align 8
  call void @table_close(ptr noundef %84, i32 noundef 3)
  %85 = load i32, ptr %10, align 4
  %86 = icmp ne i32 %85, 0
  br i1 %86, label %87, label %99

87:                                               ; preds = %82
  %88 = load i32, ptr %10, align 4
  %89 = load i32, ptr %11, align 4
  %90 = icmp ne i32 %88, %89
  br i1 %90, label %91, label %99

91:                                               ; preds = %87
  call void @llvm.lifetime.start.p0(i64 8, ptr %12) #7
  %92 = load ptr, ptr %5, align 8
  %93 = load i32, ptr %6, align 4
  %94 = call ptr @makeArrayTypeName(ptr noundef %92, i32 noundef %93)
  store ptr %94, ptr %12, align 8
  %95 = load i32, ptr %10, align 4
  %96 = load ptr, ptr %12, align 8
  %97 = load i32, ptr %6, align 4
  call void @RenameTypeInternal(i32 noundef %95, ptr noundef %96, i32 noundef %97)
  %98 = load ptr, ptr %12, align 8
  call void @pfree(ptr noundef %98)
  call void @llvm.lifetime.end.p0(i64 8, ptr %12) #7
  br label %99

99:                                               ; preds = %91, %87, %82
  call void @llvm.lifetime.end.p0(i64 4, ptr %11) #7
  call void @llvm.lifetime.end.p0(i64 4, ptr %10) #7
  call void @llvm.lifetime.end.p0(i64 8, ptr %9) #7
  call void @llvm.lifetime.end.p0(i64 8, ptr %8) #7
  call void @llvm.lifetime.end.p0(i64 8, ptr %7) #7
  ret void
}