; Function Attrs: nounwind uwtable
define dso_local void @RenameTypeInternal(i32 noundef %0, ptr noundef %1, i32 noundef %2) local_unnamed_addr #0 {
  %4 = tail call ptr @table_open(i32 noundef 1247, i32 noundef 3) #8
  %5 = zext i32 %0 to i64
  %6 = tail call ptr @SearchSysCacheCopy(i32 noundef 82, i64 noundef %5, i64 noundef 0, i64 noundef 0, i64 noundef 0) #8
  %.not = icmp eq ptr %6, null
  br i1 %.not, label %7, label %10

7:                                                ; preds = %3
  %8 = tail call zeroext i1 @errstart_cold(i32 noundef 21, ptr noundef null) #9
  tail call void @llvm.assume(i1 %8)
  %9 = tail call i32 (ptr, ...) @errmsg_internal(ptr noundef nonnull @.str.9, i32 noundef %0) #8
  tail call void @errfinish(ptr noundef nonnull @.str.1, i32 noundef 777, ptr noundef nonnull @__func__.RenameTypeInternal) #8
  unreachable

10:                                               ; preds = %3
  %11 = getelementptr i8, ptr %6, i64 16
  %.val = load ptr, ptr %11, align 8
  %12 = getelementptr inbounds nuw i8, ptr %.val, i64 22
  %13 = load i8, ptr %12, align 2
  %14 = zext i8 %13 to i64
  %15 = getelementptr inbounds nuw i8, ptr %.val, i64 %14
  %16 = getelementptr inbounds nuw i8, ptr %15, i64 96
  %17 = load i32, ptr %16, align 4
  %18 = ptrtoint ptr %1 to i64
  %19 = zext i32 %2 to i64
  %20 = tail call i32 @GetSysCacheOid(i32 noundef 81, i16 noundef signext 1, i64 noundef %18, i64 noundef %19, i64 noundef 0, i64 noundef 0) #8
  %.not31 = icmp eq i32 %20, 0
  br i1 %.not31, label %moveArrayTypeName.exit.thread, label %21

21:                                               ; preds = %10
  %22 = tail call zeroext i1 @get_typisdefined(i32 noundef %20) #8
  br i1 %22, label %23, label %moveArrayTypeName.exit

23:                                               ; preds = %21
  %24 = tail call zeroext i1 @get_typisdefined(i32 noundef %20) #8
  br i1 %24, label %25, label %moveArrayTypeName.exit.thread

25:                                               ; preds = %23
  %26 = tail call i32 @get_element_type(i32 noundef %20) #8
  %.not.i = icmp eq i32 %26, 0
  br i1 %.not.i, label %moveArrayTypeName.exit, label %27

27:                                               ; preds = %25
  %28 = tail call i32 @get_array_type(i32 noundef %26) #8
  %.not13.i = icmp eq i32 %28, %20
  br i1 %.not13.i, label %29, label %moveArrayTypeName.exit

29:                                               ; preds = %27
  %30 = tail call ptr @makeArrayTypeName(ptr noundef %1, i32 noundef %2)
  tail call void @RenameTypeInternal(i32 noundef %20, ptr noundef %30, i32 noundef %2)
  tail call void @CommandCounterIncrement() #8
  tail call void @pfree(ptr noundef %30) #8
  br label %moveArrayTypeName.exit.thread

moveArrayTypeName.exit:                           ; preds = %27, %25, %21
  %31 = tail call zeroext i1 @errstart_cold(i32 noundef 21, ptr noundef null) #9
  tail call void @llvm.assume(i1 %31)
  %32 = tail call i32 @errcode(i32 noundef 290948) #8
  %33 = tail call i32 (ptr, ...) @errmsg(ptr noundef nonnull @.str.7, ptr noundef %1) #8
  tail call void @errfinish(ptr noundef nonnull @.str.1, i32 noundef 805, ptr noundef nonnull @__func__.RenameTypeInternal) #8
  unreachable

moveArrayTypeName.exit.thread:                    ; preds = %23, %29, %10
  %34 = getelementptr inbounds nuw i8, ptr %15, i64 4
  tail call void @namestrcpy(ptr noundef nonnull %34, ptr noundef %1) #8
  %35 = getelementptr inbounds nuw i8, ptr %6, i64 4
  tail call void @CatalogTupleUpdate(ptr noundef %4, ptr noundef nonnull %35, ptr noundef nonnull %6) #8
  %36 = load ptr, ptr @object_access_hook, align 8
  %.not32 = icmp eq ptr %36, null
  br i1 %.not32, label %38, label %37

37:                                               ; preds = %moveArrayTypeName.exit.thread
  tail call void @RunObjectPostAlterHook(i32 noundef 1247, i32 noundef %0, i32 noundef 0, i32 noundef 0, i1 noundef zeroext false) #8
  br label %38

38:                                               ; preds = %37, %moveArrayTypeName.exit.thread
  tail call void @heap_freetuple(ptr noundef nonnull %6) #8
  tail call void @table_close(ptr noundef %4, i32 noundef 3) #8
  %.not33 = icmp eq i32 %17, 0
  %.not34 = icmp eq i32 %17, %20
  %or.cond = or i1 %.not33, %.not34
  br i1 %or.cond, label %common.ret36, label %39

common.ret36:                                     ; preds = %38, %39
  ret void

39:                                               ; preds = %38
  %40 = tail call ptr @makeArrayTypeName(ptr noundef %1, i32 noundef %2)
  tail call void @RenameTypeInternal(i32 noundef %17, ptr noundef %40, i32 noundef %2)
  tail call void @pfree(ptr noundef %40) #8
  br label %common.ret36
}